; Function Attrs: mustprogress nofree norecurse nosync nounwind null_pointer_is_valid sspstrong willreturn memory(argmem: read) uwtable
define internal range(i32 0, 2) i32 @sender_key_equal_fn(ptr noundef readonly captures(none) %0, ptr noundef readonly captures(none) %1) #13 {
  %3 = load i32, ptr %0, align 4
  %4 = load i32, ptr %1, align 4
  %.not = icmp eq i32 %3, %4
  br i1 %.not, label %5, label %25

5:                                                ; preds = %2
  %6 = getelementptr inbounds nuw i8, ptr %0, i64 4
  %7 = load i32, ptr %6, align 4
  %8 = getelementptr inbounds nuw i8, ptr %1, i64 4
  %9 = load i32, ptr %8, align 4
  %.not12 = icmp eq i32 %7, %9
  br i1 %.not12, label %10, label %25

10:                                               ; preds = %5
  %11 = getelementptr inbounds nuw i8, ptr %0, i64 8
  %12 = load i32, ptr %11, align 4
  %13 = getelementptr inbounds nuw i8, ptr %1, i64 8
  %14 = load i32, ptr %13, align 4
  %.not13 = icmp eq i32 %12, %14
  br i1 %.not13, label %15, label %25

15:                                               ; preds = %10
  %16 = getelementptr inbounds nuw i8, ptr %0, i64 12
  %17 = load i32, ptr %16, align 4
  %18 = getelementptr inbounds nuw i8, ptr %1, i64 12
  %19 = load i32, ptr %18, align 4
  %.not14 = icmp eq i32 %17, %19
  br i1 %.not14, label %20, label %25

20:                                               ; preds = %15
  %21 = getelementptr inbounds nuw i8, ptr %0, i64 16
  %22 = load i32, ptr %21, align 4
  %23 = getelementptr inbounds nuw i8, ptr %1, i64 16
  %24 = load i32, ptr %23, align 4
  %.not15 = icmp eq i32 %22, %24
  %. = zext i1 %.not15 to i32
  br label %25

25:                                               ; preds = %20, %15, %10, %5, %2
  %.0 = phi i32 [ 0, %2 ], [ 0, %5 ], [ 0, %10 ], [ 0, %15 ], [ %., %20 ]
  ret i32 %.0
}